; Function Attrs: nounwind uwtable
define void @bitReverceOrder(ptr noundef %0, i32 noundef %1) local_unnamed_addr #0 {
  %3 = icmp sgt i32 %1, 0
  br i1 %3, label %.lr.ph, label %._crit_edge

.lr.ph:                                           ; preds = %2, %.lr.ph
  %.0.in5 = phi i32 [ %.0, %.lr.ph ], [ %1, %2 ]
  %.0 = add nsw i32 %.0.in5, -1
  tail call void @Kit_TruthChangePhase_64bit(ptr noundef %0, i32 noundef %1, i32 noundef %.0) #9
  %4 = icmp samesign ugt i32 %.0.in5, 1
  br i1 %4, label %.lr.ph, label %._crit_edge, !llvm.loop !38

._crit_edge:                                      ; preds = %.lr.ph, %2
  ret void
}